target datalayout = "e-m:e-p270:32:32-p271:32:32-p272:64:64-i64:64-i128:128-f80:128-n8:16:32:64-S128"
target triple = "x86_64-pc-linux-gnu"

%struct.asn1_string_table_st = type { i32, i64, i64, i64, i64 }

@stable = internal global ptr null, align 8
@.str.5 = private unnamed_addr constant [34 x i8] c"../openssl/crypto/asn1/a_strnid.c\00", align 1
@__func__.ASN1_STRING_TABLE_add = private unnamed_addr constant [22 x i8] c"ASN1_STRING_TABLE_add\00", align 1

; Function Attrs: nounwind uwtable
define internal ptr @OBJ_bsearch_table(ptr noundef %0, ptr noundef %1, i32 noundef %2) #0 {
  %4 = alloca ptr, align 8
  %5 = alloca ptr, align 8
  %6 = alloca i32, align 4
  store ptr %0, ptr %4, align 8, !tbaa !17
  store ptr %1, ptr %5, align 8, !tbaa !17
  store i32 %2, ptr %6, align 4, !tbaa !13
  %7 = load ptr, ptr %4, align 8, !tbaa !17
  %8 = load ptr, ptr %5, align 8, !tbaa !17
  %9 = load i32, ptr %6, align 4, !tbaa !13
  %10 = call ptr @OBJ_bsearch_(ptr noundef %7, ptr noundef %8, i32 noundef %9, i32 noundef 40, ptr noundef @table_cmp_BSEARCH_CMP_FN)
  ret ptr %10
}

; Function Attrs: inlinehint nounwind uwtable
define internal ptr @ossl_check_const_ASN1_STRING_TABLE_sk_type(ptr noundef %0) #5 {
  %2 = alloca ptr, align 8
  store ptr %0, ptr %2, align 8, !tbaa !25
  %3 = load ptr, ptr %2, align 8, !tbaa !25
  ret ptr %3
}

; Function Attrs: inlinehint nounwind uwtable
define internal ptr @ossl_check_ASN1_STRING_TABLE_type(ptr noundef %0) #5 {
  %2 = alloca ptr, align 8
  store ptr %0, ptr %2, align 8, !tbaa !17
  %3 = load ptr, ptr %2, align 8, !tbaa !17
  ret ptr %3
}

; Function Attrs: inlinehint nounwind uwtable
define internal ptr @ossl_check_ASN1_STRING_TABLE_sk_type(ptr noundef %0) #5 {
  %2 = alloca ptr, align 8
  store ptr %0, ptr %2, align 8, !tbaa !25
  %3 = load ptr, ptr %2, align 8, !tbaa !25
  ret ptr %3
}

; Function Attrs: nounwind uwtable
define ptr @ASN1_STRING_TABLE_get(i32 noundef %0) #0 {
  %2 = alloca ptr, align 8
  %3 = alloca i32, align 4
  %4 = alloca i32, align 4
  %5 = alloca %struct.asn1_string_table_st, align 8
  %6 = alloca i32, align 4
  store i32 %0, ptr %3, align 4, !tbaa !13
  call void @llvm.lifetime.start.p0(i64 4, ptr %4) #6
  call void @llvm.lifetime.start.p0(i64 40, ptr %5) #6
  %7 = call i32 @OPENSSL_init_crypto(i64 noundef 64, ptr noundef null)
  %8 = load i32, ptr %3, align 4, !tbaa !13
  %9 = getelementptr inbounds nuw %struct.asn1_string_table_st, ptr %5, i32 0, i32 0
  store i32 %8, ptr %9, align 8, !tbaa !24
  %10 = load ptr, ptr @stable, align 8, !tbaa !25
  %11 = icmp ne ptr %10, null
  br i1 %11, label %12, label %27

12:                                               ; preds = %1
  %13 = load ptr, ptr @stable, align 8, !tbaa !25
  %14 = call ptr @ossl_check_ASN1_STRING_TABLE_sk_type(ptr noundef %13)
  call void @OPENSSL_sk_sort(ptr noundef %14)
  %15 = load ptr, ptr @stable, align 8, !tbaa !25
  %16 = call ptr @ossl_check_ASN1_STRING_TABLE_sk_type(ptr noundef %15)
  %17 = call ptr @ossl_check_ASN1_STRING_TABLE_type(ptr noundef %5)
  %18 = call i32 @OPENSSL_sk_find(ptr noundef %16, ptr noundef %17)
  store i32 %18, ptr %4, align 4, !tbaa !13
  %19 = load i32, ptr %4, align 4, !tbaa !13
  %20 = icmp sge i32 %19, 0
  br i1 %20, label %21, label %26

21:                                               ; preds = %12
  %22 = load ptr, ptr @stable, align 8, !tbaa !25
  %23 = call ptr @ossl_check_const_ASN1_STRING_TABLE_sk_type(ptr noundef %22)
  %24 = load i32, ptr %4, align 4, !tbaa !13
  %25 = call ptr @OPENSSL_sk_value(ptr noundef %23, i32 noundef %24)
  store ptr %25, ptr %2, align 8
  store i32 1, ptr %6, align 4
  br label %29

26:                                               ; preds = %12
  br label %27

27:                                               ; preds = %26, %1
  %28 = call ptr @OBJ_bsearch_table(ptr noundef %5, ptr noundef @tbl_standard, i32 noundef 28)
  store ptr %28, ptr %2, align 8
  store i32 1, ptr %6, align 4
  br label %29

29:                                               ; preds = %27, %21
  call void @llvm.lifetime.end.p0(i64 40, ptr %5) #6
  call void @llvm.lifetime.end.p0(i64 4, ptr %4) #6
  %30 = load ptr, ptr %2, align 8
  ret ptr %30
}

; Function Attrs: inlinehint nounwind uwtable
define internal ptr @ossl_check_ASN1_STRING_TABLE_compfunc_type(ptr noundef %0) #5 {
  %2 = alloca ptr, align 8
  store ptr %0, ptr %2, align 8, !tbaa !27
  %3 = load ptr, ptr %2, align 8, !tbaa !27
  ret ptr %3
}

; Function Attrs: nounwind uwtable
define internal ptr @stable_get(i32 noundef %0) #0 {
  %2 = alloca ptr, align 8
  %3 = alloca i32, align 4
  %4 = alloca ptr, align 8
  %5 = alloca ptr, align 8
  %6 = alloca i32, align 4
  store i32 %0, ptr %3, align 4, !tbaa !13
  call void @llvm.lifetime.start.p0(i64 8, ptr %4) #6
  call void @llvm.lifetime.start.p0(i64 8, ptr %5) #6
  %7 = load ptr, ptr @stable, align 8, !tbaa !25
  %8 = icmp eq ptr %7, null
  br i1 %8, label %9, label %16

9:                                                ; preds = %1
  %10 = call ptr @ossl_check_ASN1_STRING_TABLE_compfunc_type(ptr noundef @sk_table_cmp)
  %11 = call ptr @OPENSSL_sk_new(ptr noundef %10)
  store ptr %11, ptr @stable, align 8, !tbaa !25
  %12 = load ptr, ptr @stable, align 8, !tbaa !25
  %13 = icmp eq ptr %12, null
  br i1 %13, label %14, label %15

14:                                               ; preds = %9
  store ptr null, ptr %2, align 8
  store i32 1, ptr %6, align 4
  br label %84

15:                                               ; preds = %9
  br label %16

16:                                               ; preds = %15, %1
  %17 = load i32, ptr %3, align 4, !tbaa !13
  %18 = call ptr @ASN1_STRING_TABLE_get(i32 noundef %17)
  store ptr %18, ptr %4, align 8, !tbaa !17
  %19 = load ptr, ptr %4, align 8, !tbaa !17
  %20 = icmp ne ptr %19, null
  br i1 %20, label %21, label %29

21:                                               ; preds = %16
  %22 = load ptr, ptr %4, align 8, !tbaa !17
  %23 = getelementptr inbounds nuw %struct.asn1_string_table_st, ptr %22, i32 0, i32 4
  %24 = load i64, ptr %23, align 8, !tbaa !21
  %25 = and i64 %24, 1
  %26 = icmp ne i64 %25, 0
  br i1 %26, label %27, label %29

27:                                               ; preds = %21
  %28 = load ptr, ptr %4, align 8, !tbaa !17
  store ptr %28, ptr %2, align 8
  store i32 1, ptr %6, align 4
  br label %84

29:                                               ; preds = %21, %16
  %30 = call noalias ptr @CRYPTO_zalloc(i64 noundef 40, ptr noundef @.str.5, i32 noundef 166)
  store ptr %30, ptr %5, align 8, !tbaa !17
  %31 = icmp eq ptr %30, null
  br i1 %31, label %32, label %33

32:                                               ; preds = %29
  store ptr null, ptr %2, align 8
  store i32 1, ptr %6, align 4
  br label %84

33:                                               ; preds = %29
  %34 = load ptr, ptr @stable, align 8, !tbaa !25
  %35 = call ptr @ossl_check_ASN1_STRING_TABLE_sk_type(ptr noundef %34)
  %36 = load ptr, ptr %5, align 8, !tbaa !17
  %37 = call ptr @ossl_check_ASN1_STRING_TABLE_type(ptr noundef %36)
  %38 = call i32 @OPENSSL_sk_push(ptr noundef %35, ptr noundef %37)
  %39 = icmp ne i32 %38, 0
  br i1 %39, label %42, label %40

40:                                               ; preds = %33
  %41 = load ptr, ptr %5, align 8, !tbaa !17
  call void @CRYPTO_free(ptr noundef %41, ptr noundef @.str.5, i32 noundef 169)
  store ptr null, ptr %2, align 8
  store i32 1, ptr %6, align 4
  br label %84

42:                                               ; preds = %33
  %43 = load ptr, ptr %4, align 8, !tbaa !17
  %44 = icmp ne ptr %43, null
  br i1 %44, label %45, label %72

45:                                               ; preds = %42
  %46 = load ptr, ptr %4, align 8, !tbaa !17
  %47 = getelementptr inbounds nuw %struct.asn1_string_table_st, ptr %46, i32 0, i32 0
  %48 = load i32, ptr %47, align 8, !tbaa !24
  %49 = load ptr, ptr %5, align 8, !tbaa !17
  %50 = getelementptr inbounds nuw %struct.asn1_string_table_st, ptr %49, i32 0, i32 0
  store i32 %48, ptr %50, align 8, !tbaa !24
  %51 = load ptr, ptr %4, align 8, !tbaa !17
  %52 = getelementptr inbounds nuw %struct.asn1_string_table_st, ptr %51, i32 0, i32 1
  %53 = load i64, ptr %52, align 8, !tbaa !22
  %54 = load ptr, ptr %5, align 8, !tbaa !17
  %55 = getelementptr inbounds nuw %struct.asn1_string_table_st, ptr %54, i32 0, i32 1
  store i64 %53, ptr %55, align 8, !tbaa !22
  %56 = load ptr, ptr %4, align 8, !tbaa !17
  %57 = getelementptr inbounds nuw %struct.asn1_string_table_st, ptr %56, i32 0, i32 2
  %58 = load i64, ptr %57, align 8, !tbaa !23
  %59 = load ptr, ptr %5, align 8, !tbaa !17
  %60 = getelementptr inbounds nuw %struct.asn1_string_table_st, ptr %59, i32 0, i32 2
  store i64 %58, ptr %60, align 8, !tbaa !23
  %61 = load ptr, ptr %4, align 8, !tbaa !17
  %62 = getelementptr inbounds nuw %struct.asn1_string_table_st, ptr %61, i32 0, i32 3
  %63 = load i64, ptr %62, align 8, !tbaa !19
  %64 = load ptr, ptr %5, align 8, !tbaa !17
  %65 = getelementptr inbounds nuw %struct.asn1_string_table_st, ptr %64, i32 0, i32 3
  store i64 %63, ptr %65, align 8, !tbaa !19
  %66 = load ptr, ptr %4, align 8, !tbaa !17
  %67 = getelementptr inbounds nuw %struct.asn1_string_table_st, ptr %66, i32 0, i32 4
  %68 = load i64, ptr %67, align 8, !tbaa !21
  %69 = or i64 %68, 1
  %70 = load ptr, ptr %5, align 8, !tbaa !17
  %71 = getelementptr inbounds nuw %struct.asn1_string_table_st, ptr %70, i32 0, i32 4
  store i64 %69, ptr %71, align 8, !tbaa !21
  br label %82

72:                                               ; preds = %42
  %73 = load i32, ptr %3, align 4, !tbaa !13
  %74 = load ptr, ptr %5, align 8, !tbaa !17
  %75 = getelementptr inbounds nuw %struct.asn1_string_table_st, ptr %74, i32 0, i32 0
  store i32 %73, ptr %75, align 8, !tbaa !24
  %76 = load ptr, ptr %5, align 8, !tbaa !17
  %77 = getelementptr inbounds nuw %struct.asn1_string_table_st, ptr %76, i32 0, i32 1
  store i64 -1, ptr %77, align 8, !tbaa !22
  %78 = load ptr, ptr %5, align 8, !tbaa !17
  %79 = getelementptr inbounds nuw %struct.asn1_string_table_st, ptr %78, i32 0, i32 2
  store i64 -1, ptr %79, align 8, !tbaa !23
  %80 = load ptr, ptr %5, align 8, !tbaa !17
  %81 = getelementptr inbounds nuw %struct.asn1_string_table_st, ptr %80, i32 0, i32 4
  store i64 1, ptr %81, align 8, !tbaa !21
  br label %82

82:                                               ; preds = %72, %45
  %83 = load ptr, ptr %5, align 8, !tbaa !17
  store ptr %83, ptr %2, align 8
  store i32 1, ptr %6, align 4
  br label %84

84:                                               ; preds = %82, %40, %32, %27, %14
  call void @llvm.lifetime.end.p0(i64 8, ptr %5) #6
  call void @llvm.lifetime.end.p0(i64 8, ptr %4) #6
  %85 = load ptr, ptr %2, align 8
  ret ptr %85
}

; Function Attrs: nounwind uwtable
define i32 @ASN1_STRING_TABLE_add(i32 noundef %0, i64 noundef %1, i64 noundef %2, i64 noundef %3, i64 noundef %4) #0 {
  %6 = alloca i32, align 4
  %7 = alloca i32, align 4
  %8 = alloca i64, align 8
  %9 = alloca i64, align 8
  %10 = alloca i64, align 8
  %11 = alloca i64, align 8
  %12 = alloca ptr, align 8
  %13 = alloca i32, align 4
  store i32 %0, ptr %7, align 4, !tbaa !13
  store i64 %1, ptr %8, align 8, !tbaa !3
  store i64 %2, ptr %9, align 8, !tbaa !3
  store i64 %3, ptr %10, align 8, !tbaa !3
  store i64 %4, ptr %11, align 8, !tbaa !3
  call void @llvm.lifetime.start.p0(i64 8, ptr %12) #6
  %14 = load i32, ptr %7, align 4, !tbaa !13
  %15 = call ptr @stable_get(i32 noundef %14)
  store ptr %15, ptr %12, align 8, !tbaa !17
  %16 = load ptr, ptr %12, align 8, !tbaa !17
  %17 = icmp eq ptr %16, null
  br i1 %17, label %18, label %19

18:                                               ; preds = %5
  call void @ERR_new()
  call void @ERR_set_debug(ptr noundef @.str.5, i32 noundef 195, ptr noundef @__func__.ASN1_STRING_TABLE_add)
  call void (i32, i32, ptr, ...) @ERR_set_error(i32 noundef 13, i32 noundef 524301, ptr noundef null)
  store i32 0, ptr %6, align 4
  store i32 1, ptr %13, align 4
  br label %49

19:                                               ; preds = %5
  %20 = load i64, ptr %8, align 8, !tbaa !3
  %21 = icmp sge i64 %20, 0
  br i1 %21, label %22, label %26

22:                                               ; preds = %19
  %23 = load i64, ptr %8, align 8, !tbaa !3
  %24 = load ptr, ptr %12, align 8, !tbaa !17
  %25 = getelementptr inbounds nuw %struct.asn1_string_table_st, ptr %24, i32 0, i32 1
  store i64 %23, ptr %25, align 8, !tbaa !22
  br label %26

26:                                               ; preds = %22, %19
  %27 = load i64, ptr %9, align 8, !tbaa !3
  %28 = icmp sge i64 %27, 0
  br i1 %28, label %29, label %33

29:                                               ; preds = %26
  %30 = load i64, ptr %9, align 8, !tbaa !3
  %31 = load ptr, ptr %12, align 8, !tbaa !17
  %32 = getelementptr inbounds nuw %struct.asn1_string_table_st, ptr %31, i32 0, i32 2
  store i64 %30, ptr %32, align 8, !tbaa !23
  br label %33

33:                                               ; preds = %29, %26
  %34 = load i64, ptr %10, align 8, !tbaa !3
  %35 = icmp ne i64 %34, 0
  br i1 %35, label %36, label %40

36:                                               ; preds = %33
  %37 = load i64, ptr %10, align 8, !tbaa !3
  %38 = load ptr, ptr %12, align 8, !tbaa !17
  %39 = getelementptr inbounds nuw %struct.asn1_string_table_st, ptr %38, i32 0, i32 3
  store i64 %37, ptr %39, align 8, !tbaa !19
  br label %40

40:                                               ; preds = %36, %33
  %41 = load i64, ptr %11, align 8, !tbaa !3
  %42 = icmp ne i64 %41, 0
  br i1 %42, label %43, label %48

43:                                               ; preds = %40
  %44 = load i64, ptr %11, align 8, !tbaa !3
  %45 = or i64 1, %44
  %46 = load ptr, ptr %12, align 8, !tbaa !17
  %47 = getelementptr inbounds nuw %struct.asn1_string_table_st, ptr %46, i32 0, i32 4
  store i64 %45, ptr %47, align 8, !tbaa !21
  br label %48

48:                                               ; preds = %43, %40
  store i32 1, ptr %6, align 4
  store i32 1, ptr %13, align 4
  br label %49

49:                                               ; preds = %48, %18
  call void @llvm.lifetime.end.p0(i64 8, ptr %12) #6
  %50 = load i32, ptr %6, align 4
  ret i32 %50
}