; Function Attrs: nounwind uwtable
define range(i32 0, 2) i32 @ASN1_STRING_TABLE_add(i32 noundef %0, i64 noundef %1, i64 noundef %2, i64 noundef %3, i64 noundef %4) local_unnamed_addr #6 {
  %6 = alloca %struct.asn1_string_table_st, align 8
  %7 = load ptr, ptr @stable, align 8, !tbaa !16
  %8 = icmp eq ptr %7, null
  br i1 %8, label %9, label %12

9:                                                ; preds = %5
  %10 = tail call ptr @OPENSSL_sk_new(ptr noundef nonnull @sk_table_cmp) #11
  store ptr %10, ptr @stable, align 8, !tbaa !16
  %11 = icmp eq ptr %10, null
  br i1 %11, label %54, label %12

12:                                               ; preds = %9, %5
  call void @llvm.lifetime.start.p0(i64 40, ptr nonnull %6) #11
  %13 = tail call i32 @OPENSSL_init_crypto(i64 noundef 64, ptr noundef null) #11
  store i32 %0, ptr %6, align 8, !tbaa !13
  %14 = load ptr, ptr @stable, align 8, !tbaa !16
  %.not.i.i = icmp eq ptr %14, null
  br i1 %.not.i.i, label %22, label %15

15:                                               ; preds = %12
  tail call void @OPENSSL_sk_sort(ptr noundef nonnull %14) #11
  %16 = load ptr, ptr @stable, align 8, !tbaa !16
  %17 = call i32 @OPENSSL_sk_find(ptr noundef %16, ptr noundef nonnull %6) #11
  %18 = icmp sgt i32 %17, -1
  br i1 %18, label %19, label %22

19:                                               ; preds = %15
  %20 = load ptr, ptr @stable, align 8, !tbaa !16
  %21 = call ptr @OPENSSL_sk_value(ptr noundef %20, i32 noundef %17) #11
  br label %ASN1_STRING_TABLE_get.exit.i

22:                                               ; preds = %15, %12
  %23 = call ptr @OBJ_bsearch_(ptr noundef nonnull %6, ptr noundef nonnull @tbl_standard, i32 noundef 28, i32 noundef 40, ptr noundef nonnull @table_cmp_BSEARCH_CMP_FN) #11
  br label %ASN1_STRING_TABLE_get.exit.i

ASN1_STRING_TABLE_get.exit.i:                     ; preds = %22, %19
  %.0.i.i = phi ptr [ %21, %19 ], [ %23, %22 ]
  call void @llvm.lifetime.end.p0(i64 40, ptr nonnull %6) #11
  %.not.i = icmp eq ptr %.0.i.i, null
  br i1 %.not.i, label %28, label %24

24:                                               ; preds = %ASN1_STRING_TABLE_get.exit.i
  %25 = getelementptr inbounds nuw i8, ptr %.0.i.i, i64 32
  %26 = load i64, ptr %25, align 8, !tbaa !19
  %27 = and i64 %26, 1
  %.not25.i = icmp eq i64 %27, 0
  br i1 %.not25.i, label %28, label %stable_get.exit

28:                                               ; preds = %24, %ASN1_STRING_TABLE_get.exit.i
  %29 = call noalias ptr @CRYPTO_zalloc(i64 noundef 40, ptr noundef nonnull @.str.5, i32 noundef 166) #11
  %30 = icmp eq ptr %29, null
  br i1 %30, label %54, label %31

31:                                               ; preds = %28
  %32 = load ptr, ptr @stable, align 8, !tbaa !16
  %33 = call i32 @OPENSSL_sk_push(ptr noundef %32, ptr noundef nonnull %29) #11
  %.not26.i = icmp eq i32 %33, 0
  br i1 %.not26.i, label %34, label %35

34:                                               ; preds = %31
  call void @CRYPTO_free(ptr noundef nonnull %29, ptr noundef nonnull @.str.5, i32 noundef 169) #11
  br label %54

35:                                               ; preds = %31
  br i1 %.not.i, label %51, label %36

36:                                               ; preds = %35
  %37 = load i32, ptr %.0.i.i, align 8, !tbaa !13
  store i32 %37, ptr %29, align 8, !tbaa !13
  %38 = getelementptr inbounds nuw i8, ptr %.0.i.i, i64 8
  %39 = load i64, ptr %38, align 8, !tbaa !20
  %40 = getelementptr inbounds nuw i8, ptr %29, i64 8
  store i64 %39, ptr %40, align 8, !tbaa !20
  %41 = getelementptr inbounds nuw i8, ptr %.0.i.i, i64 16
  %42 = load i64, ptr %41, align 8, !tbaa !21
  %43 = getelementptr inbounds nuw i8, ptr %29, i64 16
  store i64 %42, ptr %43, align 8, !tbaa !21
  %44 = getelementptr inbounds nuw i8, ptr %.0.i.i, i64 24
  %45 = load i64, ptr %44, align 8, !tbaa !18
  %46 = getelementptr inbounds nuw i8, ptr %29, i64 24
  store i64 %45, ptr %46, align 8, !tbaa !18
  %47 = getelementptr inbounds nuw i8, ptr %.0.i.i, i64 32
  %48 = load i64, ptr %47, align 8, !tbaa !19
  %49 = or i64 %48, 1
  %50 = getelementptr inbounds nuw i8, ptr %29, i64 32
  store i64 %49, ptr %50, align 8, !tbaa !19
  br label %stable_get.exit

51:                                               ; preds = %35
  store i32 %0, ptr %29, align 8, !tbaa !13
  %52 = getelementptr inbounds nuw i8, ptr %29, i64 8
  %53 = getelementptr inbounds nuw i8, ptr %29, i64 32
  call void @llvm.memset.p0.i64(ptr noundef nonnull align 8 dereferenceable(16) %52, i8 -1, i64 16, i1 false)
  store i64 1, ptr %53, align 8, !tbaa !19
  br label %stable_get.exit

54:                                               ; preds = %34, %9, %28
  call void @ERR_new() #11
  call void @ERR_set_debug(ptr noundef nonnull @.str.5, i32 noundef 195, ptr noundef nonnull @__func__.ASN1_STRING_TABLE_add) #11
  call void (i32, i32, ptr, ...) @ERR_set_error(i32 noundef 13, i32 noundef 524301, ptr noundef null) #11
  br label %69

stable_get.exit:                                  ; preds = %51, %36, %24
  %.0.i = phi ptr [ %.0.i.i, %24 ], [ %29, %51 ], [ %29, %36 ]
  %55 = icmp sgt i64 %1, -1
  br i1 %55, label %56, label %58

56:                                               ; preds = %stable_get.exit
  %57 = getelementptr inbounds nuw i8, ptr %.0.i, i64 8
  store i64 %1, ptr %57, align 8, !tbaa !20
  br label %58

58:                                               ; preds = %56, %stable_get.exit
  %59 = icmp sgt i64 %2, -1
  br i1 %59, label %60, label %62

60:                                               ; preds = %58
  %61 = getelementptr inbounds nuw i8, ptr %.0.i, i64 16
  store i64 %2, ptr %61, align 8, !tbaa !21
  br label %62

62:                                               ; preds = %60, %58
  %.not = icmp eq i64 %3, 0
  br i1 %.not, label %65, label %63

63:                                               ; preds = %62
  %64 = getelementptr inbounds nuw i8, ptr %.0.i, i64 24
  store i64 %3, ptr %64, align 8, !tbaa !18
  br label %65

65:                                               ; preds = %63, %62
  %.not19 = icmp eq i64 %4, 0
  br i1 %.not19, label %69, label %66

66:                                               ; preds = %65
  %67 = or i64 %4, 1
  %68 = getelementptr inbounds nuw i8, ptr %.0.i, i64 32
  store i64 %67, ptr %68, align 8, !tbaa !19
  br label %69

69:                                               ; preds = %65, %66, %54
  %.0 = phi i32 [ 0, %54 ], [ 1, %66 ], [ 1, %65 ]
  ret i32 %.0
}